target datalayout = "e-m:e-p270:32:32-p271:32:32-p272:64:64-i64:64-i128:128-f80:128-n8:16:32:64-S128"
target triple = "x86_64-pc-linux-gnu"

; Function Attrs: nounwind uwtable
define internal i32 @fs_read_file_at(ptr noundef %0, i32 noundef %1, ptr noundef %2, i32 noundef %3, ptr noundef %4) #0 {
  %6 = alloca i32, align 4
  %7 = alloca ptr, align 8
  %8 = alloca i32, align 4
  %9 = alloca ptr, align 8
  %10 = alloca i32, align 4
  %11 = alloca ptr, align 8
  %12 = alloca i32, align 4
  %13 = alloca i32, align 4
  store ptr %0, ptr %7, align 8, !tbaa !13
  store i32 %1, ptr %8, align 4, !tbaa !27
  store ptr %2, ptr %9, align 8, !tbaa !13
  store i32 %3, ptr %10, align 4, !tbaa !27
  store ptr %4, ptr %11, align 8, !tbaa !69
  call void @llvm.lifetime.start.p0(i64 4, ptr %12) #5
  %14 = load ptr, ptr %11, align 8, !tbaa !69
  %15 = icmp ne ptr %14, null
  br i1 %15, label %16, label %18

16:                                               ; preds = %5
  %17 = load ptr, ptr %11, align 8, !tbaa !69
  store i32 0, ptr %17, align 4, !tbaa !27
  br label %18

18:                                               ; preds = %16, %5
  %19 = load ptr, ptr %7, align 8, !tbaa !13
  %20 = load i32, ptr %8, align 4, !tbaa !27
  %21 = call i32 @lv_fs_seek(ptr noundef %19, i32 noundef %20, i32 noundef 0)
  store i32 %21, ptr %12, align 4, !tbaa !27
  %22 = load i32, ptr %12, align 4, !tbaa !27
  %23 = icmp ne i32 %22, 0
  br i1 %23, label %24, label %26

24:                                               ; preds = %18
  %25 = load i32, ptr %12, align 4, !tbaa !27
  store i32 %25, ptr %6, align 4
  store i32 1, ptr %13, align 4
  br label %39

26:                                               ; preds = %18
  %27 = load ptr, ptr %7, align 8, !tbaa !13
  %28 = load ptr, ptr %9, align 8, !tbaa !13
  %29 = load i32, ptr %10, align 4, !tbaa !27
  %30 = load ptr, ptr %11, align 8, !tbaa !69
  %31 = call i32 @lv_fs_read(ptr noundef %27, ptr noundef %28, i32 noundef %29, ptr noundef %30)
  %32 = load i32, ptr %12, align 4, !tbaa !27
  %33 = or i32 %32, %31
  store i32 %33, ptr %12, align 4, !tbaa !27
  %34 = load i32, ptr %12, align 4, !tbaa !27
  %35 = icmp ne i32 %34, 0
  br i1 %35, label %36, label %38

36:                                               ; preds = %26
  %37 = load i32, ptr %12, align 4, !tbaa !27
  store i32 %37, ptr %6, align 4
  store i32 1, ptr %13, align 4
  br label %39

38:                                               ; preds = %26
  store i32 0, ptr %6, align 4
  store i32 1, ptr %13, align 4
  br label %39

39:                                               ; preds = %38, %36, %24
  call void @llvm.lifetime.end.p0(i64 4, ptr %12) #5
  %40 = load i32, ptr %6, align 4
  ret i32 %40
}