; Function Attrs: nounwind uwtable
define internal fastcc i32 @fs_read_file_at(ptr noundef %0, i32 noundef %1, ptr noundef %2, i32 noundef %3, ptr noundef %4) unnamed_addr #0 {
  %.not = icmp eq ptr %4, null
  br i1 %.not, label %7, label %6

6:                                                ; preds = %5
  store i32 0, ptr %4, align 4, !tbaa !37
  br label %7

7:                                                ; preds = %6, %5
  %8 = tail call i32 @lv_fs_seek(ptr noundef %0, i32 noundef %1, i32 noundef 0) #4
  %.not16 = icmp eq i32 %8, 0
  br i1 %.not16, label %9, label %11

9:                                                ; preds = %7
  %10 = tail call i32 @lv_fs_read(ptr noundef %0, ptr noundef %2, i32 noundef %3, ptr noundef %4) #4
  br label %11

11:                                               ; preds = %9, %7
  %.0 = phi i32 [ %8, %7 ], [ %10, %9 ]
  ret i32 %.0
}